; ModuleID = '51/171.c'
source_filename = "51/171.c"
target datalayout = "e-m:e-p270:32:32-p271:32:32-p272:64:64-i64:64-f80:128-n8:16:32:64-S128"
target triple = "x86_64-pc-linux-gnu"

@.str = private unnamed_addr constant [5 x i8] c"%d%s\00", align 1
@.str.1 = private unnamed_addr constant [2 x i8] zeroinitializer, align 1
@.str.2 = private unnamed_addr constant [4 x i8] c"NO\0A\00", align 1
@.str.3 = private unnamed_addr constant [4 x i8] c"%d\0A\00", align 1
@.str.4 = private unnamed_addr constant [4 x i8] c"%s\0A\00", align 1

; Function Attrs: noinline nounwind uwtable
define dso_local void @main() #0 {
  %1 = alloca i32, align 4
  %2 = alloca [500 x i32], align 16
  %3 = alloca i32, align 4
  %4 = alloca i32, align 4
  %5 = alloca i32, align 4
  %6 = alloca i32, align 4
  %7 = alloca [500 x i8], align 16
  %8 = alloca [600 x [5 x i8]], align 16
  %9 = bitcast [500 x i32]* %2 to i8*
  call void @llvm.memset.p0i8.i64(i8* align 16 %9, i8 0, i64 2000, i1 false)
  store i32 0, i32* %4, align 4
  %10 = bitcast [600 x [5 x i8]]* %8 to i8*
  call void @llvm.memset.p0i8.i64(i8* align 16 %10, i8 0, i64 3000, i1 false)
  %11 = getelementptr inbounds [500 x i8], [500 x i8]* %7, i64 0, i64 0
  %12 = call i32 (i8*, ...) @__isoc99_scanf(i8* getelementptr inbounds ([5 x i8], [5 x i8]* @.str, i64 0, i64 0), i32* %1, i8* %11)
  %13 = getelementptr inbounds [500 x i8], [500 x i8]* %7, i64 0, i64 0
  %14 = call i64 @strlen(i8* %13) #4
  %15 = trunc i64 %14 to i32
  store i32 %15, i32* %3, align 4
  store i32 0, i32* %5, align 4
  br label %16

16:                                               ; preds = %44, %0
  %17 = load i32, i32* %5, align 4
  %18 = load i32, i32* %3, align 4
  %19 = load i32, i32* %1, align 4
  %20 = sub nsw i32 %18, %19
  %21 = icmp sle i32 %17, %20
  br i1 %21, label %22, label %47

22:                                               ; preds = %16
  store i32 0, i32* %6, align 4
  br label %23

23:                                               ; preds = %40, %22
  %24 = load i32, i32* %6, align 4
  %25 = load i32, i32* %1, align 4
  %26 = icmp slt i32 %24, %25
  br i1 %26, label %27, label %43

27:                                               ; preds = %23
  %28 = load i32, i32* %5, align 4
  %29 = load i32, i32* %6, align 4
  %30 = add nsw i32 %28, %29
  %31 = sext i32 %30 to i64
  %32 = getelementptr inbounds [500 x i8], [500 x i8]* %7, i64 0, i64 %31
  %33 = load i8, i8* %32, align 1
  %34 = load i32, i32* %5, align 4
  %35 = sext i32 %34 to i64
  %36 = getelementptr inbounds [600 x [5 x i8]], [600 x [5 x i8]]* %8, i64 0, i64 %35
  %37 = load i32, i32* %6, align 4
  %38 = sext i32 %37 to i64
  %39 = getelementptr inbounds [5 x i8], [5 x i8]* %36, i64 0, i64 %38
  store i8 %33, i8* %39, align 1
  br label %40

40:                                               ; preds = %27
  %41 = load i32, i32* %6, align 4
  %42 = add nsw i32 %41, 1
  store i32 %42, i32* %6, align 4
  br label %23

43:                                               ; preds = %23
  br label %44

44:                                               ; preds = %43
  %45 = load i32, i32* %5, align 4
  %46 = add nsw i32 %45, 1
  store i32 %46, i32* %5, align 4
  br label %16

47:                                               ; preds = %16
  store i32 0, i32* %5, align 4
  br label %48

48:                                               ; preds = %104, %47
  %49 = load i32, i32* %5, align 4
  %50 = load i32, i32* %3, align 4
  %51 = load i32, i32* %1, align 4
  %52 = sub nsw i32 %50, %51
  %53 = add nsw i32 %52, 1
  %54 = icmp slt i32 %49, %53
  br i1 %54, label %55, label %107

55:                                               ; preds = %48
  %56 = load i32, i32* %5, align 4
  %57 = sext i32 %56 to i64
  %58 = getelementptr inbounds [600 x [5 x i8]], [600 x [5 x i8]]* %8, i64 0, i64 %57
  %59 = getelementptr inbounds [5 x i8], [5 x i8]* %58, i64 0, i64 0
  %60 = call i32 @strcmp(i8* %59, i8* getelementptr inbounds ([2 x i8], [2 x i8]* @.str.1, i64 0, i64 0)) #4
  %61 = icmp eq i32 %60, 0
  br i1 %61, label %62, label %63

62:                                               ; preds = %55
  br label %104

63:                                               ; preds = %55
  store i32 0, i32* %4, align 4
  store i32 0, i32* %6, align 4
  br label %64

64:                                               ; preds = %95, %63
  %65 = load i32, i32* %6, align 4
  %66 = load i32, i32* %3, align 4
  %67 = load i32, i32* %1, align 4
  %68 = sub nsw i32 %66, %67
  %69 = add nsw i32 %68, 1
  %70 = icmp slt i32 %65, %69
  br i1 %70, label %71, label %98

71:                                               ; preds = %64
  %72 = load i32, i32* %5, align 4
  %73 = sext i32 %72 to i64
  %74 = getelementptr inbounds [600 x [5 x i8]], [600 x [5 x i8]]* %8, i64 0, i64 %73
  %75 = getelementptr inbounds [5 x i8], [5 x i8]* %74, i64 0, i64 0
  %76 = load i32, i32* %6, align 4
  %77 = sext i32 %76 to i64
  %78 = getelementptr inbounds [600 x [5 x i8]], [600 x [5 x i8]]* %8, i64 0, i64 %77
  %79 = getelementptr inbounds [5 x i8], [5 x i8]* %78, i64 0, i64 0
  %80 = call i32 @strcmp(i8* %75, i8* %79) #4
  %81 = icmp eq i32 %80, 0
  br i1 %81, label %82, label %94

82:                                               ; preds = %71
  %83 = load i32, i32* %4, align 4
  %84 = add nsw i32 %83, 1
  store i32 %84, i32* %4, align 4
  %85 = load i32, i32* %5, align 4
  %86 = load i32, i32* %6, align 4
  %87 = icmp ne i32 %85, %86
  br i1 %87, label %88, label %93

88:                                               ; preds = %82
  %89 = load i32, i32* %6, align 4
  %90 = sext i32 %89 to i64
  %91 = getelementptr inbounds [600 x [5 x i8]], [600 x [5 x i8]]* %8, i64 0, i64 %90
  %92 = getelementptr inbounds [5 x i8], [5 x i8]* %91, i64 0, i64 0
  store i8 0, i8* %92, align 1
  br label %93

93:                                               ; preds = %88, %82
  br label %94

94:                                               ; preds = %93, %71
  br label %95

95:                                               ; preds = %94
  %96 = load i32, i32* %6, align 4
  %97 = add nsw i32 %96, 1
  store i32 %97, i32* %6, align 4
  br label %64

98:                                               ; preds = %64
  %99 = load i32, i32* %4, align 4
  %100 = load i32, i32* %5, align 4
  %101 = sext i32 %100 to i64
  %102 = getelementptr inbounds [500 x i32], [500 x i32]* %2, i64 0, i64 %101
  store i32 %99, i32* %102, align 4
  br label %103

103:                                              ; preds = %98
  br label %104

104:                                              ; preds = %103, %62
  %105 = load i32, i32* %5, align 4
  %106 = add nsw i32 %105, 1
  store i32 %106, i32* %5, align 4
  br label %48

107:                                              ; preds = %48
  %108 = getelementptr inbounds [500 x i32], [500 x i32]* %2, i64 0, i64 0
  %109 = load i32, i32* %108, align 16
  store i32 %109, i32* %4, align 4
  store i32 0, i32* %5, align 4
  br label %110

110:                                              ; preds = %130, %107
  %111 = load i32, i32* %5, align 4
  %112 = load i32, i32* %3, align 4
  %113 = load i32, i32* %1, align 4
  %114 = sub nsw i32 %112, %113
  %115 = add nsw i32 %114, 1
  %116 = icmp slt i32 %111, %115
  br i1 %116, label %117, label %133

117:                                              ; preds = %110
  %118 = load i32, i32* %5, align 4
  %119 = sext i32 %118 to i64
  %120 = getelementptr inbounds [500 x i32], [500 x i32]* %2, i64 0, i64 %119
  %121 = load i32, i32* %120, align 4
  %122 = load i32, i32* %4, align 4
  %123 = icmp sgt i32 %121, %122
  br i1 %123, label %124, label %129

124:                                              ; preds = %117
  %125 = load i32, i32* %5, align 4
  %126 = sext i32 %125 to i64
  %127 = getelementptr inbounds [500 x i32], [500 x i32]* %2, i64 0, i64 %126
  %128 = load i32, i32* %127, align 4
  store i32 %128, i32* %4, align 4
  br label %129

129:                                              ; preds = %124, %117
  br label %130

130:                                              ; preds = %129
  %131 = load i32, i32* %5, align 4
  %132 = add nsw i32 %131, 1
  store i32 %132, i32* %5, align 4
  br label %110

133:                                              ; preds = %110
  %134 = load i32, i32* %4, align 4
  %135 = icmp sle i32 %134, 1
  br i1 %135, label %136, label %138

136:                                              ; preds = %133
  %137 = call i32 (i8*, ...) @printf(i8* getelementptr inbounds ([4 x i8], [4 x i8]* @.str.2, i64 0, i64 0))
  br label %166

138:                                              ; preds = %133
  %139 = load i32, i32* %4, align 4
  %140 = call i32 (i8*, ...) @printf(i8* getelementptr inbounds ([4 x i8], [4 x i8]* @.str.3, i64 0, i64 0), i32 %139)
  store i32 0, i32* %5, align 4
  br label %141

141:                                              ; preds = %162, %138
  %142 = load i32, i32* %5, align 4
  %143 = load i32, i32* %3, align 4
  %144 = load i32, i32* %1, align 4
  %145 = sub nsw i32 %143, %144
  %146 = add nsw i32 %145, 1
  %147 = icmp slt i32 %142, %146
  br i1 %147, label %148, label %165

148:                                              ; preds = %141
  %149 = load i32, i32* %5, align 4
  %150 = sext i32 %149 to i64
  %151 = getelementptr inbounds [500 x i32], [500 x i32]* %2, i64 0, i64 %150
  %152 = load i32, i32* %151, align 4
  %153 = load i32, i32* %4, align 4
  %154 = icmp eq i32 %152, %153
  br i1 %154, label %155, label %161

155:                                              ; preds = %148
  %156 = load i32, i32* %5, align 4
  %157 = sext i32 %156 to i64
  %158 = getelementptr inbounds [600 x [5 x i8]], [600 x [5 x i8]]* %8, i64 0, i64 %157
  %159 = getelementptr inbounds [5 x i8], [5 x i8]* %158, i64 0, i64 0
  %160 = call i32 (i8*, ...) @printf(i8* getelementptr inbounds ([4 x i8], [4 x i8]* @.str.4, i64 0, i64 0), i8* %159)
  br label %161

161:                                              ; preds = %155, %148
  br label %162

162:                                              ; preds = %161
  %163 = load i32, i32* %5, align 4
  %164 = add nsw i32 %163, 1
  store i32 %164, i32* %5, align 4
  br label %141

165:                                              ; preds = %141
  br label %166

166:                                              ; preds = %165, %136
  ret void
}

; Function Attrs: argmemonly nounwind willreturn
declare void @llvm.memset.p0i8.i64(i8* nocapture writeonly, i8, i64, i1 immarg) #1

declare dso_local i32 @__isoc99_scanf(i8*, ...) #2

; Function Attrs: nounwind readonly
declare dso_local i64 @strlen(i8*) #3

; Function Attrs: nounwind readonly
declare dso_local i32 @strcmp(i8*, i8*) #3

declare dso_local i32 @printf(i8*, ...) #2


!llvm.module.flags = !{!0}
!llvm.ident = !{!1}

!0 = !{i32 1, !"wchar_size", i32 4}
!1 = !{!"clang version 10.0.0-4ubuntu1 "}
